; Function Attrs: null_pointer_is_valid sspstrong uwtable
define internal i32 @dissect_MessageDeliveryArgument_PDU(ptr noundef %0, ptr noundef %1, ptr noundef %2, ptr readnone captures(none) %3) #0 {
  %5 = alloca %struct._asn1_ctx_t, align 8
  call void @llvm.lifetime.start.p0(i64 208, ptr nonnull %5) #5
  call void @asn1_ctx_init(ptr noundef nonnull %5, i32 noundef 0, i1 noundef zeroext true, ptr noundef %1)
  %6 = load i32, ptr @hf_p1_MessageDeliveryArgument_PDU, align 4
  %7 = getelementptr inbounds nuw i8, ptr %5, i64 136
  %8 = load ptr, ptr %7, align 8
  %9 = icmp eq ptr %8, null
  br i1 %9, label %10, label %p1_initialize_content_globals.exit.i

10:                                               ; preds = %4
  %11 = getelementptr inbounds nuw i8, ptr %5, i64 16
  %12 = load ptr, ptr %11, align 8
  %13 = getelementptr inbounds nuw i8, ptr %12, i64 408
  %14 = load ptr, ptr %13, align 8
  %15 = call noalias dereferenceable_or_null(32) ptr @wmem_alloc0(ptr noundef %14, i64 noundef 32) #6
  store ptr %15, ptr %7, align 8
  br label %p1_initialize_content_globals.exit.i

p1_initialize_content_globals.exit.i:             ; preds = %10, %4
  %16 = phi ptr [ %15, %10 ], [ %8, %4 ]
  %17 = getelementptr inbounds nuw i8, ptr %5, i64 128
  store ptr %2, ptr %17, align 8
  %18 = getelementptr inbounds nuw i8, ptr %5, i64 72
  store ptr null, ptr %18, align 8
  %19 = getelementptr inbounds nuw i8, ptr %16, i64 8
  store ptr null, ptr %19, align 8
  %20 = getelementptr inbounds nuw i8, ptr %16, i64 16
  store i8 1, ptr %20, align 8
  %21 = load i32, ptr @ett_p1_MessageDeliveryArgument, align 4
  %22 = call i32 @dissect_ber_sequence(i1 noundef zeroext false, ptr noundef nonnull %5, ptr noundef %2, ptr noundef %0, i32 noundef 0, ptr noundef nonnull @MessageDeliveryArgument_sequence, i32 noundef %6, i32 noundef %21)
  %23 = load ptr, ptr %7, align 8
  %24 = icmp eq ptr %23, null
  br i1 %24, label %25, label %dissect_p1_MessageDeliveryArgument.exit

25:                                               ; preds = %p1_initialize_content_globals.exit.i
  %26 = getelementptr inbounds nuw i8, ptr %5, i64 16
  %27 = load ptr, ptr %26, align 8
  %28 = getelementptr inbounds nuw i8, ptr %27, i64 408
  %29 = load ptr, ptr %28, align 8
  %30 = call noalias dereferenceable_or_null(32) ptr @wmem_alloc0(ptr noundef %29, i64 noundef 32) #6
  br label %dissect_p1_MessageDeliveryArgument.exit

dissect_p1_MessageDeliveryArgument.exit:          ; preds = %p1_initialize_content_globals.exit.i, %25
  %31 = phi ptr [ %30, %25 ], [ %23, %p1_initialize_content_globals.exit.i ]
  %32 = getelementptr inbounds nuw i8, ptr %31, i64 8
  store ptr null, ptr %32, align 8
  %33 = getelementptr inbounds nuw i8, ptr %31, i64 16
  store i8 0, ptr %33, align 8
  call void @llvm.lifetime.end.p0(i64 208, ptr nonnull %5) #5
  ret i32 %22
}